Archive member included to satisfy reference by file (symbol)

/home/jssmile/STM32F4_Examples/04_PWM_Servo/lib/STM32F4xx_StdPeriph_Driver/libstdperiph.a(stm32f4xx_rcc.o)
                              /home/jssmile/STM32F4_Examples/04_PWM_Servo/build/main.o (RCC_AHB1PeriphClockCmd)
/home/jssmile/STM32F4_Examples/04_PWM_Servo/lib/STM32F4xx_StdPeriph_Driver/libstdperiph.a(stm32f4xx_gpio.o)
                              /home/jssmile/STM32F4_Examples/04_PWM_Servo/build/main.o (GPIO_Init)
/home/jssmile/STM32F4_Examples/04_PWM_Servo/lib/STM32F4xx_StdPeriph_Driver/libstdperiph.a(stm32f4xx_tim.o)
                              /home/jssmile/STM32F4_Examples/04_PWM_Servo/build/main.o (TIM_TimeBaseInit)

Allocating common symbols
Common symbol       size              file

msTicks             0x4               /home/jssmile/STM32F4_Examples/04_PWM_Servo/build/main.o

Discarded input sections

 .data          0x0000000000000000        0x0 /home/jssmile/STM32F4_Examples/04_PWM_Servo/build/startup_stm32f4xx.o
 .bss           0x0000000000000000        0x0 /home/jssmile/STM32F4_Examples/04_PWM_Servo/build/startup_stm32f4xx.o
 .data          0x0000000000000000        0x0 /home/jssmile/STM32F4_Examples/04_PWM_Servo/build/main.o
 .bss           0x0000000000000000        0x0 /home/jssmile/STM32F4_Examples/04_PWM_Servo/build/main.o
 .data          0x0000000000000000        0x0 /home/jssmile/STM32F4_Examples/04_PWM_Servo/build/stm32f4xx_it.o
 .bss           0x0000000000000000        0x0 /home/jssmile/STM32F4_Examples/04_PWM_Servo/build/stm32f4xx_it.o
 .bss           0x0000000000000000        0x0 /home/jssmile/STM32F4_Examples/04_PWM_Servo/build/system_stm32f4xx.o
 .text          0x0000000000000000       0x18 /home/jssmile/STM32F4_Examples/04_PWM_Servo/build/CortexM4asmOps.o
 .data          0x0000000000000000        0x0 /home/jssmile/STM32F4_Examples/04_PWM_Servo/build/CortexM4asmOps.o
 .bss           0x0000000000000000        0x0 /home/jssmile/STM32F4_Examples/04_PWM_Servo/build/CortexM4asmOps.o
 .ARM.attributes
                0x0000000000000000       0x21 /home/jssmile/STM32F4_Examples/04_PWM_Servo/build/CortexM4asmOps.o
 .bss           0x0000000000000000        0x0 /home/jssmile/STM32F4_Examples/04_PWM_Servo/lib/STM32F4xx_StdPeriph_Driver/libstdperiph.a(stm32f4xx_rcc.o)
 .data          0x0000000000000000        0x0 /home/jssmile/STM32F4_Examples/04_PWM_Servo/lib/STM32F4xx_StdPeriph_Driver/libstdperiph.a(stm32f4xx_gpio.o)
 .bss           0x0000000000000000        0x0 /home/jssmile/STM32F4_Examples/04_PWM_Servo/lib/STM32F4xx_StdPeriph_Driver/libstdperiph.a(stm32f4xx_gpio.o)
 .data          0x0000000000000000        0x0 /home/jssmile/STM32F4_Examples/04_PWM_Servo/lib/STM32F4xx_StdPeriph_Driver/libstdperiph.a(stm32f4xx_tim.o)
 .bss           0x0000000000000000        0x0 /home/jssmile/STM32F4_Examples/04_PWM_Servo/lib/STM32F4xx_StdPeriph_Driver/libstdperiph.a(stm32f4xx_tim.o)

Memory Configuration

Name             Origin             Length             Attributes
FLASH            0x0000000008000000 0x0000000000100000 xr
RAM              0x0000000020000000 0x0000000000020000 xrw
CCM              0x0000000010000000 0x0000000000010000 xrw
*default*        0x0000000000000000 0xffffffffffffffff

Linker script and memory map

LOAD /home/jssmile/STM32F4_Examples/04_PWM_Servo/build/startup_stm32f4xx.o
LOAD /home/jssmile/STM32F4_Examples/04_PWM_Servo/build/main.o
LOAD /home/jssmile/STM32F4_Examples/04_PWM_Servo/build/stm32f4xx_it.o
LOAD /home/jssmile/STM32F4_Examples/04_PWM_Servo/build/system_stm32f4xx.o
LOAD /home/jssmile/STM32F4_Examples/04_PWM_Servo/build/CortexM4asmOps.o
LOAD /home/jssmile/STM32F4_Examples/04_PWM_Servo/lib/STM32F4xx_StdPeriph_Driver/libstdperiph.a
LOAD /usr/lib/gcc/arm-none-eabi/4.8/../../../arm-none-eabi/lib/armv7e-m/libc_nano.a
LOAD /usr/lib/gcc/arm-none-eabi/4.8/armv7e-m/libgcc.a
LOAD /usr/lib/gcc/arm-none-eabi/4.8/../../../arm-none-eabi/lib/armv7e-m/libnosys.a
START GROUP
LOAD /usr/lib/gcc/arm-none-eabi/4.8/armv7e-m/libgcc.a
LOAD /usr/lib/gcc/arm-none-eabi/4.8/../../../arm-none-eabi/lib/armv7e-m/libc_nano.a
END GROUP
START GROUP
LOAD /usr/lib/gcc/arm-none-eabi/4.8/armv7e-m/libgcc.a
LOAD /usr/lib/gcc/arm-none-eabi/4.8/../../../arm-none-eabi/lib/armv7e-m/libc_nano.a
END GROUP
                0x0000000020020000                _estack = 0x20020000
                0x0000000000000000                _Min_Heap_Size = 0x0
                0x0000000000000400                _Min_Stack_Size = 0x400

.isr_vector     0x0000000008000000      0x188
                0x0000000008000000                . = ALIGN (0x4)
 *(.isr_vector)
 .isr_vector    0x0000000008000000      0x188 /home/jssmile/STM32F4_Examples/04_PWM_Servo/build/startup_stm32f4xx.o
                0x0000000008000000                g_pfnVectors
                0x0000000008000188                . = ALIGN (0x4)

.text           0x0000000008000188     0x200c
                0x0000000008000188                . = ALIGN (0x4)
 *(.text)
 .text          0x0000000008000188       0x70 /home/jssmile/STM32F4_Examples/04_PWM_Servo/build/startup_stm32f4xx.o
                0x0000000008000188                RTC_Alarm_IRQHandler
                0x0000000008000188                HASH_RNG_IRQHandler
                0x0000000008000188                EXTI2_IRQHandler
                0x0000000008000188                TIM8_CC_IRQHandler
                0x0000000008000188                DebugMon_Handler
                0x0000000008000188                TIM1_CC_IRQHandler
                0x0000000008000188                DMA2_Stream5_IRQHandler
                0x0000000008000188                DMA1_Stream5_IRQHandler
                0x0000000008000188                PVD_IRQHandler
                0x0000000008000188                SDIO_IRQHandler
                0x0000000008000188                TAMP_STAMP_IRQHandler
                0x0000000008000188                PendSV_Handler
                0x0000000008000188                CAN2_RX1_IRQHandler
                0x0000000008000188                EXTI3_IRQHandler
                0x0000000008000188                TIM8_TRG_COM_TIM14_IRQHandler
                0x0000000008000188                TIM1_UP_TIM10_IRQHandler
                0x0000000008000188                TIM8_UP_TIM13_IRQHandler
                0x0000000008000188                I2C3_ER_IRQHandler
                0x0000000008000188                EXTI0_IRQHandler
                0x0000000008000188                I2C2_EV_IRQHandler
                0x0000000008000188                DMA1_Stream2_IRQHandler
                0x0000000008000188                CAN1_RX0_IRQHandler
                0x0000000008000188                FPU_IRQHandler
                0x0000000008000188                OTG_HS_WKUP_IRQHandler
                0x0000000008000188                UsageFault_Handler
                0x0000000008000188                CAN2_SCE_IRQHandler
                0x0000000008000188                DMA2_Stream2_IRQHandler
                0x0000000008000188                SPI1_IRQHandler
                0x0000000008000188                TIM6_DAC_IRQHandler
                0x0000000008000188                TIM1_BRK_TIM9_IRQHandler
                0x0000000008000188                DCMI_IRQHandler
                0x0000000008000188                CAN2_RX0_IRQHandler
                0x0000000008000188                DMA2_Stream3_IRQHandler
                0x0000000008000188                USART6_IRQHandler
                0x0000000008000188                USART3_IRQHandler
                0x0000000008000188                CRYP_IRQHandler
                0x0000000008000188                CAN1_RX1_IRQHandler
                0x0000000008000188                UART5_IRQHandler
                0x0000000008000188                DMA2_Stream0_IRQHandler
                0x0000000008000188                TIM4_IRQHandler
                0x0000000008000188                I2C1_EV_IRQHandler
                0x0000000008000188                DMA1_Stream6_IRQHandler
                0x0000000008000188                DMA1_Stream1_IRQHandler
                0x0000000008000188                UART4_IRQHandler
                0x0000000008000188                TIM3_IRQHandler
                0x0000000008000188                RCC_IRQHandler
                0x0000000008000188                TIM8_BRK_TIM12_IRQHandler
                0x0000000008000188                Default_Handler
                0x0000000008000188                EXTI15_10_IRQHandler
                0x0000000008000188                ADC_IRQHandler
                0x0000000008000188                DMA1_Stream7_IRQHandler
                0x0000000008000188                TIM7_IRQHandler
                0x0000000008000188                CAN2_TX_IRQHandler
                0x0000000008000188                TIM5_IRQHandler
                0x0000000008000188                DMA2_Stream7_IRQHandler
                0x0000000008000188                I2C3_EV_IRQHandler
                0x0000000008000188                EXTI9_5_IRQHandler
                0x0000000008000188                RTC_WKUP_IRQHandler
                0x0000000008000188                ETH_WKUP_IRQHandler
                0x0000000008000188                SPI2_IRQHandler
                0x0000000008000188                OTG_HS_EP1_IN_IRQHandler
                0x0000000008000188                MemManage_Handler
                0x0000000008000188                DMA1_Stream0_IRQHandler
                0x0000000008000188                CAN1_TX_IRQHandler
                0x0000000008000188                SVC_Handler
                0x0000000008000188                EXTI4_IRQHandler
                0x0000000008000188                FSMC_IRQHandler
                0x0000000008000188                ETH_IRQHandler
                0x0000000008000188                OTG_HS_EP1_OUT_IRQHandler
                0x0000000008000188                WWDG_IRQHandler
                0x0000000008000188                TIM2_IRQHandler
                0x0000000008000188                OTG_FS_WKUP_IRQHandler
                0x0000000008000188                TIM1_TRG_COM_TIM11_IRQHandler
                0x0000000008000188                OTG_HS_IRQHandler
                0x0000000008000188                EXTI1_IRQHandler
                0x0000000008000188                USART2_IRQHandler
                0x0000000008000188                I2C2_ER_IRQHandler
                0x0000000008000188                DMA2_Stream1_IRQHandler
                0x0000000008000188                CAN1_SCE_IRQHandler
                0x0000000008000188                FLASH_IRQHandler
                0x0000000008000188                DMA2_Stream4_IRQHandler
                0x0000000008000188                BusFault_Handler
                0x0000000008000188                USART1_IRQHandler
                0x0000000008000188                OTG_FS_IRQHandler
                0x0000000008000188                SPI3_IRQHandler
                0x0000000008000188                DMA1_Stream4_IRQHandler
                0x0000000008000188                I2C1_ER_IRQHandler
                0x0000000008000188                DMA2_Stream6_IRQHandler
                0x0000000008000188                DMA1_Stream3_IRQHandler
                0x000000000800018c                Reset_Handler
 .text          0x00000000080001f8      0x7f0 /home/jssmile/STM32F4_Examples/04_PWM_Servo/build/main.o
                0x00000000080001f8                SysTick_Handler
                0x0000000008000208                setSysTick
                0x000000000800024c                gpio_init_motor
                0x0000000008000284                config_PWM
                0x0000000008000344                clockwise_A
                0x00000000080004b0                counterClockwise_A
                0x000000000800061c                clockwise_B
                0x0000000008000770                counterClockwise_B
                0x00000000080008c4                pad_init
                0x00000000080008d8                pen_up
                0x00000000080008f8                pen_down
                0x0000000008000918                H
 .text          0x00000000080009e8       0x24 /home/jssmile/STM32F4_Examples/04_PWM_Servo/build/stm32f4xx_it.o
                0x00000000080009e8                NMI_Handler
                0x00000000080009ec                HardFault_Handler
 .text          0x0000000008000a0c      0x158 /home/jssmile/STM32F4_Examples/04_PWM_Servo/build/system_stm32f4xx.o
                0x0000000008000a0c                SystemInit
                0x0000000008000afc                SystemCoreClockUpdate
 .text          0x0000000008000b64      0x53c /home/jssmile/STM32F4_Examples/04_PWM_Servo/lib/STM32F4xx_StdPeriph_Driver/libstdperiph.a(stm32f4xx_rcc.o)
                0x0000000008000b64                RCC_DeInit
                0x0000000008000bb4                RCC_HSEConfig
                0x0000000008000bc4                RCC_WaitForHSEStartUp
                0x0000000008000bfc                RCC_AdjustHSICalibrationValue
                0x0000000008000c10                RCC_HSICmd
                0x0000000008000c1c                RCC_LSEConfig
                0x0000000008000c3c                RCC_LSICmd
                0x0000000008000c48                RCC_PLLConfig
                0x0000000008000c6c                RCC_PLLCmd
                0x0000000008000c78                RCC_PLLI2SConfig
                0x0000000008000c8c                RCC_PLLI2SCmd
                0x0000000008000c98                RCC_PLLSAIConfig
                0x0000000008000cb0                RCC_PLLSAICmd
                0x0000000008000cbc                RCC_ClockSecuritySystemCmd
                0x0000000008000cc8                RCC_MCO1Config
                0x0000000008000cdc                RCC_MCO2Config
                0x0000000008000cf0                RCC_SYSCLKConfig
                0x0000000008000d04                RCC_GetSYSCLKSource
                0x0000000008000d14                RCC_HCLKConfig
                0x0000000008000d28                RCC_PCLK1Config
                0x0000000008000d3c                RCC_PCLK2Config
                0x0000000008000d50                RCC_GetClocksFreq
                0x0000000008000de0                RCC_RTCCLKConfig
                0x0000000008000e10                RCC_RTCCLKCmd
                0x0000000008000e1c                RCC_BackupResetCmd
                0x0000000008000e28                RCC_I2SCLKConfig
                0x0000000008000e34                RCC_SAIPLLI2SClkDivConfig
                0x0000000008000e4c                RCC_SAIPLLSAIClkDivConfig
                0x0000000008000e68                RCC_SAIBlockACLKConfig
                0x0000000008000e80                RCC_SAIBlockBCLKConfig
                0x0000000008000e98                RCC_LTDCCLKDivConfig
                0x0000000008000eb0                RCC_TIMCLKPresConfig
                0x0000000008000ebc                RCC_AHB1PeriphClockCmd
                0x0000000008000ed4                RCC_AHB2PeriphClockCmd
                0x0000000008000eec                RCC_AHB3PeriphClockCmd
                0x0000000008000f04                RCC_APB1PeriphClockCmd
                0x0000000008000f1c                RCC_APB2PeriphClockCmd
                0x0000000008000f34                RCC_AHB1PeriphResetCmd
                0x0000000008000f4c                RCC_AHB2PeriphResetCmd
                0x0000000008000f64                RCC_AHB3PeriphResetCmd
                0x0000000008000f7c                RCC_APB1PeriphResetCmd
                0x0000000008000f94                RCC_APB2PeriphResetCmd
                0x0000000008000fac                RCC_AHB1PeriphClockLPModeCmd
                0x0000000008000fc4                RCC_AHB2PeriphClockLPModeCmd
                0x0000000008000fdc                RCC_AHB3PeriphClockLPModeCmd
                0x0000000008000ff4                RCC_APB1PeriphClockLPModeCmd
                0x000000000800100c                RCC_APB2PeriphClockLPModeCmd
                0x0000000008001024                RCC_ITConfig
                0x000000000800103c                RCC_GetFlagStatus
                0x0000000008001070                RCC_ClearFlag
                0x0000000008001080                RCC_GetITStatus
                0x0000000008001094                RCC_ClearITPendingBit
 .text          0x00000000080010a0      0x2c0 /home/jssmile/STM32F4_Examples/04_PWM_Servo/lib/STM32F4xx_StdPeriph_Driver/libstdperiph.a(stm32f4xx_gpio.o)
                0x00000000080010a0                GPIO_DeInit
                0x00000000080011fc                GPIO_Init
                0x00000000080012b8                GPIO_StructInit
                0x00000000080012cc                GPIO_PinLockConfig
                0x00000000080012f0                GPIO_ReadInputDataBit
                0x00000000080012fc                GPIO_ReadInputData
                0x0000000008001304                GPIO_ReadOutputDataBit
                0x0000000008001310                GPIO_ReadOutputData
                0x0000000008001318                GPIO_SetBits
                0x000000000800131c                GPIO_ResetBits
                0x0000000008001320                GPIO_WriteBit
                0x000000000800132c                GPIO_Write
                0x0000000008001330                GPIO_ToggleBits
                0x0000000008001338                GPIO_PinAFConfig
 .text          0x0000000008001360      0xdbc /home/jssmile/STM32F4_Examples/04_PWM_Servo/lib/STM32F4xx_StdPeriph_Driver/libstdperiph.a(stm32f4xx_tim.o)
                0x0000000008001360                TIM_DeInit
                0x0000000008001518                TIM_TimeBaseInit
                0x00000000080015b4                TIM_TimeBaseStructInit
                0x00000000080015c8                TIM_PrescalerConfig
                0x00000000080015d0                TIM_CounterModeConfig
                0x00000000080015e0                TIM_SetCounter
                0x00000000080015e4                TIM_SetAutoreload
                0x00000000080015e8                TIM_GetCounter
                0x00000000080015ec                TIM_GetPrescaler
                0x00000000080015f4                TIM_UpdateDisableConfig
                0x0000000008001610                TIM_UpdateRequestConfig
                0x000000000800162c                TIM_ARRPreloadConfig
                0x0000000008001648                TIM_SelectOnePulseMode
                0x0000000008001660                TIM_SetClockDivision
                0x0000000008001678                TIM_Cmd
                0x0000000008001694                TIM_OC1Init
                0x0000000008001714                TIM_OC2Init
                0x00000000080017a4                TIM_OC3Init
                0x0000000008001830                TIM_OC4Init
                0x000000000800189c                TIM_OCStructInit
                0x00000000080018b0                TIM_SelectOCxM
                0x0000000008001900                TIM_SetCompare1
                0x0000000008001904                TIM_SetCompare2
                0x0000000008001908                TIM_SetCompare3
                0x000000000800190c                TIM_SetCompare4
                0x0000000008001910                TIM_ForcedOC1Config
                0x0000000008001920                TIM_ForcedOC2Config
                0x0000000008001934                TIM_ForcedOC3Config
                0x0000000008001944                TIM_ForcedOC4Config
                0x0000000008001958                TIM_OC1PreloadConfig
                0x0000000008001968                TIM_OC2PreloadConfig
                0x000000000800197c                TIM_OC3PreloadConfig
                0x000000000800198c                TIM_OC4PreloadConfig
                0x00000000080019a0                TIM_OC1FastConfig
                0x00000000080019b0                TIM_OC2FastConfig
                0x00000000080019c4                TIM_OC3FastConfig
                0x00000000080019d4                TIM_OC4FastConfig
                0x00000000080019e8                TIM_ClearOC1Ref
                0x00000000080019f8                TIM_ClearOC2Ref
                0x0000000008001a08                TIM_ClearOC3Ref
                0x0000000008001a18                TIM_ClearOC4Ref
                0x0000000008001a28                TIM_OC1PolarityConfig
                0x0000000008001a38                TIM_OC1NPolarityConfig
                0x0000000008001a48                TIM_OC2PolarityConfig
                0x0000000008001a5c                TIM_OC2NPolarityConfig
                0x0000000008001a70                TIM_OC3PolarityConfig
                0x0000000008001a84                TIM_OC3NPolarityConfig
                0x0000000008001a98                TIM_OC4PolarityConfig
                0x0000000008001aac                TIM_CCxCmd
                0x0000000008001acc                TIM_CCxNCmd
                0x0000000008001aec                TIM_ICInit
                0x0000000008001c54                TIM_ICStructInit
                0x0000000008001c64                TIM_PWMIConfig
                0x0000000008001db4                TIM_GetCapture1
                0x0000000008001db8                TIM_GetCapture2
                0x0000000008001dbc                TIM_GetCapture3
                0x0000000008001dc0                TIM_GetCapture4
                0x0000000008001dc4                TIM_SetIC1Prescaler
                0x0000000008001ddc                TIM_SetIC2Prescaler
                0x0000000008001df8                TIM_SetIC3Prescaler
                0x0000000008001e10                TIM_SetIC4Prescaler
                0x0000000008001e2c                TIM_BDTRConfig
                0x0000000008001e58                TIM_BDTRStructInit
                0x0000000008001e6c                TIM_CtrlPWMOutputs
                0x0000000008001e8c                TIM_SelectCOM
                0x0000000008001ea8                TIM_CCPreloadControl
                0x0000000008001ec4                TIM_ITConfig
                0x0000000008001ed8                TIM_GenerateEvent
                0x0000000008001edc                TIM_GetFlagStatus
                0x0000000008001ee8                TIM_ClearFlag
                0x0000000008001ef0                TIM_GetITStatus
                0x0000000008001f08                TIM_ClearITPendingBit
                0x0000000008001f10                TIM_DMAConfig
                0x0000000008001f18                TIM_DMACmd
                0x0000000008001f2c                TIM_SelectCCDMA
                0x0000000008001f48                TIM_InternalClockConfig
                0x0000000008001f58                TIM_ITRxExternalClockConfig
                0x0000000008001f74                TIM_TIxExternalClockConfig
                0x0000000008001ffc                TIM_ETRClockMode1Config
                0x0000000008002024                TIM_ETRClockMode2Config
                0x0000000008002048                TIM_SelectInputTrigger
                0x0000000008002058                TIM_SelectOutputTrigger
                0x0000000008002070                TIM_SelectSlaveMode
                0x0000000008002088                TIM_SelectMasterSlaveMode
                0x00000000080020a0                TIM_ETRConfig
                0x00000000080020b8                TIM_EncoderInterfaceConfig
                0x00000000080020f8                TIM_SelectHallSensor
                0x0000000008002114                TIM_RemapConfig
 *(.text*)
 .text.startup  0x000000000800211c       0x78 /home/jssmile/STM32F4_Examples/04_PWM_Servo/build/main.o
                0x000000000800211c                main
 *(.rodata)
 *(.rodata*)
 *(.glue_7)
 .glue_7        0x0000000008002194        0x0 linker stubs
 *(.glue_7t)
 .glue_7t       0x0000000008002194        0x0 linker stubs
 *(.eh_frame)
 *(.init)
 *(.fini)
                0x0000000008002194                . = ALIGN (0x4)
                0x0000000008002194                _etext = .
                0x0000000008002194                _exit = .

.vfp11_veneer   0x0000000008002194        0x0
 .vfp11_veneer  0x0000000008002194        0x0 linker stubs

.v4_bx          0x0000000008002194        0x0
 .v4_bx         0x0000000008002194        0x0 linker stubs

.iplt           0x0000000008002194        0x0
 .iplt          0x0000000008002194        0x0 /home/jssmile/STM32F4_Examples/04_PWM_Servo/build/startup_stm32f4xx.o

.rel.dyn        0x0000000008002194        0x0
 .rel.iplt      0x0000000008002194        0x0 /home/jssmile/STM32F4_Examples/04_PWM_Servo/build/startup_stm32f4xx.o

.ARM.extab
 *(.ARM.extab* .gnu.linkonce.armextab.*)

.ARM            0x0000000008002194        0x0
                0x0000000008002194                __exidx_start = .
 *(.ARM.exidx*)
                0x0000000008002194                __exidx_end = .

.preinit_array  0x0000000008002194        0x0
                0x0000000008002194                PROVIDE (__preinit_array_start, .)
 *(.preinit_array*)
                0x0000000008002194                PROVIDE (__preinit_array_end, .)

.init_array     0x0000000008002194        0x0
                0x0000000008002194                PROVIDE (__init_array_start, .)
 *(SORT(.init_array.*))
 *(.init_array*)
                0x0000000008002194                PROVIDE (__init_array_end, .)

.fini_array     0x0000000008002194        0x0
                0x0000000008002194                PROVIDE (__fini_array_start, .)
 *(.fini_array*)
 *(SORT(.fini_array.*))
                0x0000000008002194                PROVIDE (__fini_array_end, .)
                0x0000000008002194                __sidata = .

.data           0x0000000020000000       0x24 load address 0x0000000008002194
                0x0000000020000000                . = ALIGN (0x4)
                0x0000000020000000                _sdata = .
                0x0000000020000000                __data_start__ = _sdata
 *(.data)
 .data          0x0000000020000000       0x14 /home/jssmile/STM32F4_Examples/04_PWM_Servo/build/system_stm32f4xx.o
                0x0000000020000000                AHBPrescTable
                0x0000000020000010                SystemCoreClock
 .data          0x0000000020000014       0x10 /home/jssmile/STM32F4_Examples/04_PWM_Servo/lib/STM32F4xx_StdPeriph_Driver/libstdperiph.a(stm32f4xx_rcc.o)
 *(.data*)
                0x0000000020000024                . = ALIGN (0x4)
                0x0000000020000024                _edata = .
                0x0000000020000024                __data_end__ = _edata

.igot.plt       0x0000000020000024        0x0 load address 0x00000000080021b8
 .igot.plt      0x0000000020000024        0x0 /home/jssmile/STM32F4_Examples/04_PWM_Servo/build/startup_stm32f4xx.o
                0x0000000020000024                . = ALIGN (0x4)

.bss            0x0000000020000024        0x4 load address 0x00000000080021b8
                0x0000000020000024                _sbss = .
                0x0000000020000024                __bss_start__ = _sbss
 *(.bss)
 *(.bss*)
 *(COMMON)
 COMMON         0x0000000020000024        0x4 /home/jssmile/STM32F4_Examples/04_PWM_Servo/build/main.o
                0x0000000020000024                msTicks
                0x0000000020000028                . = ALIGN (0x4)
                0x0000000020000028                _ebss = .
                0x0000000020000028                __bss_end__ = _ebss

._user_heap_stack
                0x0000000020000028      0x400 load address 0x00000000080021bc
                0x0000000020000028                . = ALIGN (0x4)
                0x0000000020000028                PROVIDE (end, .)
                0x0000000020000028                PROVIDE (_end, .)
                0x0000000020000028                . = (. + _Min_Heap_Size)
                0x0000000020000428                . = (. + _Min_Stack_Size)
 *fill*         0x0000000020000028      0x400 
                0x0000000020000428                . = ALIGN (0x4)
OUTPUT(/home/jssmile/STM32F4_Examples/04_PWM_Servo/build/blinky.elf elf32-littlearm)

.debug_info     0x0000000000000000     0x6b13
 .debug_info    0x0000000000000000      0x119 /home/jssmile/STM32F4_Examples/04_PWM_Servo/build/startup_stm32f4xx.o
 .debug_info    0x0000000000000119     0x278b /home/jssmile/STM32F4_Examples/04_PWM_Servo/build/main.o
 .debug_info    0x00000000000028a4      0x133 /home/jssmile/STM32F4_Examples/04_PWM_Servo/build/stm32f4xx_it.o
 .debug_info    0x00000000000029d7      0x5e2 /home/jssmile/STM32F4_Examples/04_PWM_Servo/build/system_stm32f4xx.o
 .debug_info    0x0000000000002fb9      0xe96 /home/jssmile/STM32F4_Examples/04_PWM_Servo/lib/STM32F4xx_StdPeriph_Driver/libstdperiph.a(stm32f4xx_rcc.o)
 .debug_info    0x0000000000003e4f      0x819 /home/jssmile/STM32F4_Examples/04_PWM_Servo/lib/STM32F4xx_StdPeriph_Driver/libstdperiph.a(stm32f4xx_gpio.o)
 .debug_info    0x0000000000004668     0x24ab /home/jssmile/STM32F4_Examples/04_PWM_Servo/lib/STM32F4xx_StdPeriph_Driver/libstdperiph.a(stm32f4xx_tim.o)

.debug_abbrev   0x0000000000000000      0xd63
 .debug_abbrev  0x0000000000000000       0xf2 /home/jssmile/STM32F4_Examples/04_PWM_Servo/build/startup_stm32f4xx.o
 .debug_abbrev  0x00000000000000f2      0x3e5 /home/jssmile/STM32F4_Examples/04_PWM_Servo/build/main.o
 .debug_abbrev  0x00000000000004d7       0x67 /home/jssmile/STM32F4_Examples/04_PWM_Servo/build/stm32f4xx_it.o
 .debug_abbrev  0x000000000000053e      0x145 /home/jssmile/STM32F4_Examples/04_PWM_Servo/build/system_stm32f4xx.o
 .debug_abbrev  0x0000000000000683      0x257 /home/jssmile/STM32F4_Examples/04_PWM_Servo/lib/STM32F4xx_StdPeriph_Driver/libstdperiph.a(stm32f4xx_rcc.o)
 .debug_abbrev  0x00000000000008da      0x1f8 /home/jssmile/STM32F4_Examples/04_PWM_Servo/lib/STM32F4xx_StdPeriph_Driver/libstdperiph.a(stm32f4xx_gpio.o)
 .debug_abbrev  0x0000000000000ad2      0x291 /home/jssmile/STM32F4_Examples/04_PWM_Servo/lib/STM32F4xx_StdPeriph_Driver/libstdperiph.a(stm32f4xx_tim.o)

.debug_loc      0x0000000000000000     0x3f0b
 .debug_loc     0x0000000000000000       0x22 /home/jssmile/STM32F4_Examples/04_PWM_Servo/build/startup_stm32f4xx.o
 .debug_loc     0x0000000000000022      0xc47 /home/jssmile/STM32F4_Examples/04_PWM_Servo/build/main.o
 .debug_loc     0x0000000000000c69      0x144 /home/jssmile/STM32F4_Examples/04_PWM_Servo/build/system_stm32f4xx.o
 .debug_loc     0x0000000000000dad      0xd25 /home/jssmile/STM32F4_Examples/04_PWM_Servo/lib/STM32F4xx_StdPeriph_Driver/libstdperiph.a(stm32f4xx_rcc.o)
 .debug_loc     0x0000000000001ad2      0x3b8 /home/jssmile/STM32F4_Examples/04_PWM_Servo/lib/STM32F4xx_StdPeriph_Driver/libstdperiph.a(stm32f4xx_gpio.o)
 .debug_loc     0x0000000000001e8a     0x2081 /home/jssmile/STM32F4_Examples/04_PWM_Servo/lib/STM32F4xx_StdPeriph_Driver/libstdperiph.a(stm32f4xx_tim.o)

.debug_aranges  0x0000000000000000       0xe8
 .debug_aranges
                0x0000000000000000       0x20 /home/jssmile/STM32F4_Examples/04_PWM_Servo/build/startup_stm32f4xx.o
 .debug_aranges
                0x0000000000000020       0x28 /home/jssmile/STM32F4_Examples/04_PWM_Servo/build/main.o
 .debug_aranges
                0x0000000000000048       0x20 /home/jssmile/STM32F4_Examples/04_PWM_Servo/build/stm32f4xx_it.o
 .debug_aranges
                0x0000000000000068       0x20 /home/jssmile/STM32F4_Examples/04_PWM_Servo/build/system_stm32f4xx.o
 .debug_aranges
                0x0000000000000088       0x20 /home/jssmile/STM32F4_Examples/04_PWM_Servo/lib/STM32F4xx_StdPeriph_Driver/libstdperiph.a(stm32f4xx_rcc.o)
 .debug_aranges
                0x00000000000000a8       0x20 /home/jssmile/STM32F4_Examples/04_PWM_Servo/lib/STM32F4xx_StdPeriph_Driver/libstdperiph.a(stm32f4xx_gpio.o)
 .debug_aranges
                0x00000000000000c8       0x20 /home/jssmile/STM32F4_Examples/04_PWM_Servo/lib/STM32F4xx_StdPeriph_Driver/libstdperiph.a(stm32f4xx_tim.o)

.debug_line     0x0000000000000000     0x16eb
 .debug_line    0x0000000000000000       0x58 /home/jssmile/STM32F4_Examples/04_PWM_Servo/build/startup_stm32f4xx.o
 .debug_line    0x0000000000000058      0x7b5 /home/jssmile/STM32F4_Examples/04_PWM_Servo/build/main.o
 .debug_line    0x000000000000080d       0xf2 /home/jssmile/STM32F4_Examples/04_PWM_Servo/build/stm32f4xx_it.o
 .debug_line    0x00000000000008ff      0x191 /home/jssmile/STM32F4_Examples/04_PWM_Servo/build/system_stm32f4xx.o
 .debug_line    0x0000000000000a90      0x2e8 /home/jssmile/STM32F4_Examples/04_PWM_Servo/lib/STM32F4xx_StdPeriph_Driver/libstdperiph.a(stm32f4xx_rcc.o)
 .debug_line    0x0000000000000d78      0x234 /home/jssmile/STM32F4_Examples/04_PWM_Servo/lib/STM32F4xx_StdPeriph_Driver/libstdperiph.a(stm32f4xx_gpio.o)
 .debug_line    0x0000000000000fac      0x73f /home/jssmile/STM32F4_Examples/04_PWM_Servo/lib/STM32F4xx_StdPeriph_Driver/libstdperiph.a(stm32f4xx_tim.o)

.debug_str      0x0000000000000000     0x2067
 .debug_str     0x0000000000000000      0x12c /home/jssmile/STM32F4_Examples/04_PWM_Servo/build/startup_stm32f4xx.o
                                        0x13e (size before relaxing)
 .debug_str     0x000000000000012c      0xbb6 /home/jssmile/STM32F4_Examples/04_PWM_Servo/build/main.o
                                        0xca2 (size before relaxing)
 .debug_str     0x0000000000000ce2       0x8f /home/jssmile/STM32F4_Examples/04_PWM_Servo/build/stm32f4xx_it.o
                                        0x1c9 (size before relaxing)
 .debug_str     0x0000000000000d71      0x15c /home/jssmile/STM32F4_Examples/04_PWM_Servo/build/system_stm32f4xx.o
                                        0x393 (size before relaxing)
 .debug_str     0x0000000000000ecd      0x70a /home/jssmile/STM32F4_Examples/04_PWM_Servo/lib/STM32F4xx_StdPeriph_Driver/libstdperiph.a(stm32f4xx_rcc.o)
                                        0x972 (size before relaxing)
 .debug_str     0x00000000000015d7      0x137 /home/jssmile/STM32F4_Examples/04_PWM_Servo/lib/STM32F4xx_StdPeriph_Driver/libstdperiph.a(stm32f4xx_gpio.o)
                                        0x4a4 (size before relaxing)
 .debug_str     0x000000000000170e      0x959 /home/jssmile/STM32F4_Examples/04_PWM_Servo/lib/STM32F4xx_StdPeriph_Driver/libstdperiph.a(stm32f4xx_tim.o)
                                        0xddb (size before relaxing)

.comment        0x0000000000000000       0x20
 .comment       0x0000000000000000       0x20 /home/jssmile/STM32F4_Examples/04_PWM_Servo/build/startup_stm32f4xx.o
                                         0x21 (size before relaxing)
 .comment       0x0000000000000020       0x21 /home/jssmile/STM32F4_Examples/04_PWM_Servo/build/main.o
 .comment       0x0000000000000020       0x21 /home/jssmile/STM32F4_Examples/04_PWM_Servo/build/stm32f4xx_it.o
 .comment       0x0000000000000020       0x21 /home/jssmile/STM32F4_Examples/04_PWM_Servo/build/system_stm32f4xx.o
 .comment       0x0000000000000020       0x21 /home/jssmile/STM32F4_Examples/04_PWM_Servo/lib/STM32F4xx_StdPeriph_Driver/libstdperiph.a(stm32f4xx_rcc.o)
 .comment       0x0000000000000020       0x21 /home/jssmile/STM32F4_Examples/04_PWM_Servo/lib/STM32F4xx_StdPeriph_Driver/libstdperiph.a(stm32f4xx_gpio.o)
 .comment       0x0000000000000020       0x21 /home/jssmile/STM32F4_Examples/04_PWM_Servo/lib/STM32F4xx_StdPeriph_Driver/libstdperiph.a(stm32f4xx_tim.o)

.ARM.attributes
                0x0000000000000000       0x31
 .ARM.attributes
                0x0000000000000000       0x33 /home/jssmile/STM32F4_Examples/04_PWM_Servo/build/startup_stm32f4xx.o
 .ARM.attributes
                0x0000000000000033       0x33 /home/jssmile/STM32F4_Examples/04_PWM_Servo/build/main.o
 .ARM.attributes
                0x0000000000000066       0x33 /home/jssmile/STM32F4_Examples/04_PWM_Servo/build/stm32f4xx_it.o
 .ARM.attributes
                0x0000000000000099       0x33 /home/jssmile/STM32F4_Examples/04_PWM_Servo/build/system_stm32f4xx.o
 .ARM.attributes
                0x00000000000000cc       0x33 /home/jssmile/STM32F4_Examples/04_PWM_Servo/lib/STM32F4xx_StdPeriph_Driver/libstdperiph.a(stm32f4xx_rcc.o)
 .ARM.attributes
                0x00000000000000ff       0x33 /home/jssmile/STM32F4_Examples/04_PWM_Servo/lib/STM32F4xx_StdPeriph_Driver/libstdperiph.a(stm32f4xx_gpio.o)
 .ARM.attributes
                0x0000000000000132       0x33 /home/jssmile/STM32F4_Examples/04_PWM_Servo/lib/STM32F4xx_StdPeriph_Driver/libstdperiph.a(stm32f4xx_tim.o)

.debug_frame    0x0000000000000000      0xd34
 .debug_frame   0x0000000000000000       0x40 /home/jssmile/STM32F4_Examples/04_PWM_Servo/build/startup_stm32f4xx.o
 .debug_frame   0x0000000000000040      0x160 /home/jssmile/STM32F4_Examples/04_PWM_Servo/build/main.o
 .debug_frame   0x00000000000001a0       0xa0 /home/jssmile/STM32F4_Examples/04_PWM_Servo/build/stm32f4xx_it.o
 .debug_frame   0x0000000000000240       0x34 /home/jssmile/STM32F4_Examples/04_PWM_Servo/build/system_stm32f4xx.o
 .debug_frame   0x0000000000000274      0x36c /home/jssmile/STM32F4_Examples/04_PWM_Servo/lib/STM32F4xx_StdPeriph_Driver/libstdperiph.a(stm32f4xx_rcc.o)
 .debug_frame   0x00000000000005e0      0x118 /home/jssmile/STM32F4_Examples/04_PWM_Servo/lib/STM32F4xx_StdPeriph_Driver/libstdperiph.a(stm32f4xx_gpio.o)
 .debug_frame   0x00000000000006f8      0x63c /home/jssmile/STM32F4_Examples/04_PWM_Servo/lib/STM32F4xx_StdPeriph_Driver/libstdperiph.a(stm32f4xx_tim.o)

.debug_ranges   0x0000000000000000      0x208
 .debug_ranges  0x0000000000000000      0x158 /home/jssmile/STM32F4_Examples/04_PWM_Servo/build/main.o
 .debug_ranges  0x0000000000000158       0x18 /home/jssmile/STM32F4_Examples/04_PWM_Servo/build/system_stm32f4xx.o
 .debug_ranges  0x0000000000000170       0x18 /home/jssmile/STM32F4_Examples/04_PWM_Servo/lib/STM32F4xx_StdPeriph_Driver/libstdperiph.a(stm32f4xx_rcc.o)
 .debug_ranges  0x0000000000000188       0x80 /home/jssmile/STM32F4_Examples/04_PWM_Servo/lib/STM32F4xx_StdPeriph_Driver/libstdperiph.a(stm32f4xx_tim.o)

Cross Reference Table

Symbol                                            File
ADC_IRQHandler                                    /home/jssmile/STM32F4_Examples/04_PWM_Servo/build/startup_stm32f4xx.o
AHBPrescTable                                     /home/jssmile/STM32F4_Examples/04_PWM_Servo/build/system_stm32f4xx.o
BusFault_Handler                                  /home/jssmile/STM32F4_Examples/04_PWM_Servo/build/startup_stm32f4xx.o
CAN1_RX0_IRQHandler                               /home/jssmile/STM32F4_Examples/04_PWM_Servo/build/startup_stm32f4xx.o
CAN1_RX1_IRQHandler                               /home/jssmile/STM32F4_Examples/04_PWM_Servo/build/startup_stm32f4xx.o
CAN1_SCE_IRQHandler                               /home/jssmile/STM32F4_Examples/04_PWM_Servo/build/startup_stm32f4xx.o
CAN1_TX_IRQHandler                                /home/jssmile/STM32F4_Examples/04_PWM_Servo/build/startup_stm32f4xx.o
CAN2_RX0_IRQHandler                               /home/jssmile/STM32F4_Examples/04_PWM_Servo/build/startup_stm32f4xx.o
CAN2_RX1_IRQHandler                               /home/jssmile/STM32F4_Examples/04_PWM_Servo/build/startup_stm32f4xx.o
CAN2_SCE_IRQHandler                               /home/jssmile/STM32F4_Examples/04_PWM_Servo/build/startup_stm32f4xx.o
CAN2_TX_IRQHandler                                /home/jssmile/STM32F4_Examples/04_PWM_Servo/build/startup_stm32f4xx.o
CRYP_IRQHandler                                   /home/jssmile/STM32F4_Examples/04_PWM_Servo/build/startup_stm32f4xx.o
DCMI_IRQHandler                                   /home/jssmile/STM32F4_Examples/04_PWM_Servo/build/startup_stm32f4xx.o
DMA1_Stream0_IRQHandler                           /home/jssmile/STM32F4_Examples/04_PWM_Servo/build/startup_stm32f4xx.o
DMA1_Stream1_IRQHandler                           /home/jssmile/STM32F4_Examples/04_PWM_Servo/build/startup_stm32f4xx.o
DMA1_Stream2_IRQHandler                           /home/jssmile/STM32F4_Examples/04_PWM_Servo/build/startup_stm32f4xx.o
DMA1_Stream3_IRQHandler                           /home/jssmile/STM32F4_Examples/04_PWM_Servo/build/startup_stm32f4xx.o
DMA1_Stream4_IRQHandler                           /home/jssmile/STM32F4_Examples/04_PWM_Servo/build/startup_stm32f4xx.o
DMA1_Stream5_IRQHandler                           /home/jssmile/STM32F4_Examples/04_PWM_Servo/build/startup_stm32f4xx.o
DMA1_Stream6_IRQHandler                           /home/jssmile/STM32F4_Examples/04_PWM_Servo/build/startup_stm32f4xx.o
DMA1_Stream7_IRQHandler                           /home/jssmile/STM32F4_Examples/04_PWM_Servo/build/startup_stm32f4xx.o
DMA2_Stream0_IRQHandler                           /home/jssmile/STM32F4_Examples/04_PWM_Servo/build/startup_stm32f4xx.o
DMA2_Stream1_IRQHandler                           /home/jssmile/STM32F4_Examples/04_PWM_Servo/build/startup_stm32f4xx.o
DMA2_Stream2_IRQHandler                           /home/jssmile/STM32F4_Examples/04_PWM_Servo/build/startup_stm32f4xx.o
DMA2_Stream3_IRQHandler                           /home/jssmile/STM32F4_Examples/04_PWM_Servo/build/startup_stm32f4xx.o
DMA2_Stream4_IRQHandler                           /home/jssmile/STM32F4_Examples/04_PWM_Servo/build/startup_stm32f4xx.o
DMA2_Stream5_IRQHandler                           /home/jssmile/STM32F4_Examples/04_PWM_Servo/build/startup_stm32f4xx.o
DMA2_Stream6_IRQHandler                           /home/jssmile/STM32F4_Examples/04_PWM_Servo/build/startup_stm32f4xx.o
DMA2_Stream7_IRQHandler                           /home/jssmile/STM32F4_Examples/04_PWM_Servo/build/startup_stm32f4xx.o
DebugMon_Handler                                  /home/jssmile/STM32F4_Examples/04_PWM_Servo/build/startup_stm32f4xx.o
Default_Handler                                   /home/jssmile/STM32F4_Examples/04_PWM_Servo/build/startup_stm32f4xx.o
ETH_IRQHandler                                    /home/jssmile/STM32F4_Examples/04_PWM_Servo/build/startup_stm32f4xx.o
ETH_WKUP_IRQHandler                               /home/jssmile/STM32F4_Examples/04_PWM_Servo/build/startup_stm32f4xx.o
EXTI0_IRQHandler                                  /home/jssmile/STM32F4_Examples/04_PWM_Servo/build/startup_stm32f4xx.o
EXTI15_10_IRQHandler                              /home/jssmile/STM32F4_Examples/04_PWM_Servo/build/startup_stm32f4xx.o
EXTI1_IRQHandler                                  /home/jssmile/STM32F4_Examples/04_PWM_Servo/build/startup_stm32f4xx.o
EXTI2_IRQHandler                                  /home/jssmile/STM32F4_Examples/04_PWM_Servo/build/startup_stm32f4xx.o
EXTI3_IRQHandler                                  /home/jssmile/STM32F4_Examples/04_PWM_Servo/build/startup_stm32f4xx.o
EXTI4_IRQHandler                                  /home/jssmile/STM32F4_Examples/04_PWM_Servo/build/startup_stm32f4xx.o
EXTI9_5_IRQHandler                                /home/jssmile/STM32F4_Examples/04_PWM_Servo/build/startup_stm32f4xx.o
FLASH_IRQHandler                                  /home/jssmile/STM32F4_Examples/04_PWM_Servo/build/startup_stm32f4xx.o
FPU_IRQHandler                                    /home/jssmile/STM32F4_Examples/04_PWM_Servo/build/startup_stm32f4xx.o
FSMC_IRQHandler                                   /home/jssmile/STM32F4_Examples/04_PWM_Servo/build/startup_stm32f4xx.o
GPIO_DeInit                                       /home/jssmile/STM32F4_Examples/04_PWM_Servo/lib/STM32F4xx_StdPeriph_Driver/libstdperiph.a(stm32f4xx_gpio.o)
GPIO_Init                                         /home/jssmile/STM32F4_Examples/04_PWM_Servo/lib/STM32F4xx_StdPeriph_Driver/libstdperiph.a(stm32f4xx_gpio.o)
                                                  /home/jssmile/STM32F4_Examples/04_PWM_Servo/build/main.o
GPIO_PinAFConfig                                  /home/jssmile/STM32F4_Examples/04_PWM_Servo/lib/STM32F4xx_StdPeriph_Driver/libstdperiph.a(stm32f4xx_gpio.o)
                                                  /home/jssmile/STM32F4_Examples/04_PWM_Servo/build/main.o
GPIO_PinLockConfig                                /home/jssmile/STM32F4_Examples/04_PWM_Servo/lib/STM32F4xx_StdPeriph_Driver/libstdperiph.a(stm32f4xx_gpio.o)
GPIO_ReadInputData                                /home/jssmile/STM32F4_Examples/04_PWM_Servo/lib/STM32F4xx_StdPeriph_Driver/libstdperiph.a(stm32f4xx_gpio.o)
GPIO_ReadInputDataBit                             /home/jssmile/STM32F4_Examples/04_PWM_Servo/lib/STM32F4xx_StdPeriph_Driver/libstdperiph.a(stm32f4xx_gpio.o)
GPIO_ReadOutputData                               /home/jssmile/STM32F4_Examples/04_PWM_Servo/lib/STM32F4xx_StdPeriph_Driver/libstdperiph.a(stm32f4xx_gpio.o)
GPIO_ReadOutputDataBit                            /home/jssmile/STM32F4_Examples/04_PWM_Servo/lib/STM32F4xx_StdPeriph_Driver/libstdperiph.a(stm32f4xx_gpio.o)
GPIO_ResetBits                                    /home/jssmile/STM32F4_Examples/04_PWM_Servo/lib/STM32F4xx_StdPeriph_Driver/libstdperiph.a(stm32f4xx_gpio.o)
                                                  /home/jssmile/STM32F4_Examples/04_PWM_Servo/build/main.o
GPIO_SetBits                                      /home/jssmile/STM32F4_Examples/04_PWM_Servo/lib/STM32F4xx_StdPeriph_Driver/libstdperiph.a(stm32f4xx_gpio.o)
                                                  /home/jssmile/STM32F4_Examples/04_PWM_Servo/build/main.o
GPIO_StructInit                                   /home/jssmile/STM32F4_Examples/04_PWM_Servo/lib/STM32F4xx_StdPeriph_Driver/libstdperiph.a(stm32f4xx_gpio.o)
GPIO_ToggleBits                                   /home/jssmile/STM32F4_Examples/04_PWM_Servo/lib/STM32F4xx_StdPeriph_Driver/libstdperiph.a(stm32f4xx_gpio.o)
GPIO_Write                                        /home/jssmile/STM32F4_Examples/04_PWM_Servo/lib/STM32F4xx_StdPeriph_Driver/libstdperiph.a(stm32f4xx_gpio.o)
GPIO_WriteBit                                     /home/jssmile/STM32F4_Examples/04_PWM_Servo/lib/STM32F4xx_StdPeriph_Driver/libstdperiph.a(stm32f4xx_gpio.o)
H                                                 /home/jssmile/STM32F4_Examples/04_PWM_Servo/build/main.o
HASH_RNG_IRQHandler                               /home/jssmile/STM32F4_Examples/04_PWM_Servo/build/startup_stm32f4xx.o
HardFault_Handler                                 /home/jssmile/STM32F4_Examples/04_PWM_Servo/build/stm32f4xx_it.o
                                                  /home/jssmile/STM32F4_Examples/04_PWM_Servo/build/startup_stm32f4xx.o
I2C1_ER_IRQHandler                                /home/jssmile/STM32F4_Examples/04_PWM_Servo/build/startup_stm32f4xx.o
I2C1_EV_IRQHandler                                /home/jssmile/STM32F4_Examples/04_PWM_Servo/build/startup_stm32f4xx.o
I2C2_ER_IRQHandler                                /home/jssmile/STM32F4_Examples/04_PWM_Servo/build/startup_stm32f4xx.o
I2C2_EV_IRQHandler                                /home/jssmile/STM32F4_Examples/04_PWM_Servo/build/startup_stm32f4xx.o
I2C3_ER_IRQHandler                                /home/jssmile/STM32F4_Examples/04_PWM_Servo/build/startup_stm32f4xx.o
I2C3_EV_IRQHandler                                /home/jssmile/STM32F4_Examples/04_PWM_Servo/build/startup_stm32f4xx.o
MemManage_Handler                                 /home/jssmile/STM32F4_Examples/04_PWM_Servo/build/startup_stm32f4xx.o
NMI_Handler                                       /home/jssmile/STM32F4_Examples/04_PWM_Servo/build/stm32f4xx_it.o
                                                  /home/jssmile/STM32F4_Examples/04_PWM_Servo/build/startup_stm32f4xx.o
OTG_FS_IRQHandler                                 /home/jssmile/STM32F4_Examples/04_PWM_Servo/build/startup_stm32f4xx.o
OTG_FS_WKUP_IRQHandler                            /home/jssmile/STM32F4_Examples/04_PWM_Servo/build/startup_stm32f4xx.o
OTG_HS_EP1_IN_IRQHandler                          /home/jssmile/STM32F4_Examples/04_PWM_Servo/build/startup_stm32f4xx.o
OTG_HS_EP1_OUT_IRQHandler                         /home/jssmile/STM32F4_Examples/04_PWM_Servo/build/startup_stm32f4xx.o
OTG_HS_IRQHandler                                 /home/jssmile/STM32F4_Examples/04_PWM_Servo/build/startup_stm32f4xx.o
OTG_HS_WKUP_IRQHandler                            /home/jssmile/STM32F4_Examples/04_PWM_Servo/build/startup_stm32f4xx.o
PVD_IRQHandler                                    /home/jssmile/STM32F4_Examples/04_PWM_Servo/build/startup_stm32f4xx.o
PendSV_Handler                                    /home/jssmile/STM32F4_Examples/04_PWM_Servo/build/startup_stm32f4xx.o
RCC_AHB1PeriphClockCmd                            /home/jssmile/STM32F4_Examples/04_PWM_Servo/lib/STM32F4xx_StdPeriph_Driver/libstdperiph.a(stm32f4xx_rcc.o)
                                                  /home/jssmile/STM32F4_Examples/04_PWM_Servo/build/main.o
RCC_AHB1PeriphClockLPModeCmd                      /home/jssmile/STM32F4_Examples/04_PWM_Servo/lib/STM32F4xx_StdPeriph_Driver/libstdperiph.a(stm32f4xx_rcc.o)
RCC_AHB1PeriphResetCmd                            /home/jssmile/STM32F4_Examples/04_PWM_Servo/lib/STM32F4xx_StdPeriph_Driver/libstdperiph.a(stm32f4xx_rcc.o)
                                                  /home/jssmile/STM32F4_Examples/04_PWM_Servo/lib/STM32F4xx_StdPeriph_Driver/libstdperiph.a(stm32f4xx_gpio.o)
RCC_AHB2PeriphClockCmd                            /home/jssmile/STM32F4_Examples/04_PWM_Servo/lib/STM32F4xx_StdPeriph_Driver/libstdperiph.a(stm32f4xx_rcc.o)
RCC_AHB2PeriphClockLPModeCmd                      /home/jssmile/STM32F4_Examples/04_PWM_Servo/lib/STM32F4xx_StdPeriph_Driver/libstdperiph.a(stm32f4xx_rcc.o)
RCC_AHB2PeriphResetCmd                            /home/jssmile/STM32F4_Examples/04_PWM_Servo/lib/STM32F4xx_StdPeriph_Driver/libstdperiph.a(stm32f4xx_rcc.o)
RCC_AHB3PeriphClockCmd                            /home/jssmile/STM32F4_Examples/04_PWM_Servo/lib/STM32F4xx_StdPeriph_Driver/libstdperiph.a(stm32f4xx_rcc.o)
RCC_AHB3PeriphClockLPModeCmd                      /home/jssmile/STM32F4_Examples/04_PWM_Servo/lib/STM32F4xx_StdPeriph_Driver/libstdperiph.a(stm32f4xx_rcc.o)
RCC_AHB3PeriphResetCmd                            /home/jssmile/STM32F4_Examples/04_PWM_Servo/lib/STM32F4xx_StdPeriph_Driver/libstdperiph.a(stm32f4xx_rcc.o)
RCC_APB1PeriphClockCmd                            /home/jssmile/STM32F4_Examples/04_PWM_Servo/lib/STM32F4xx_StdPeriph_Driver/libstdperiph.a(stm32f4xx_rcc.o)
                                                  /home/jssmile/STM32F4_Examples/04_PWM_Servo/build/main.o
RCC_APB1PeriphClockLPModeCmd                      /home/jssmile/STM32F4_Examples/04_PWM_Servo/lib/STM32F4xx_StdPeriph_Driver/libstdperiph.a(stm32f4xx_rcc.o)
RCC_APB1PeriphResetCmd                            /home/jssmile/STM32F4_Examples/04_PWM_Servo/lib/STM32F4xx_StdPeriph_Driver/libstdperiph.a(stm32f4xx_rcc.o)
                                                  /home/jssmile/STM32F4_Examples/04_PWM_Servo/lib/STM32F4xx_StdPeriph_Driver/libstdperiph.a(stm32f4xx_tim.o)
RCC_APB2PeriphClockCmd                            /home/jssmile/STM32F4_Examples/04_PWM_Servo/lib/STM32F4xx_StdPeriph_Driver/libstdperiph.a(stm32f4xx_rcc.o)
RCC_APB2PeriphClockLPModeCmd                      /home/jssmile/STM32F4_Examples/04_PWM_Servo/lib/STM32F4xx_StdPeriph_Driver/libstdperiph.a(stm32f4xx_rcc.o)
RCC_APB2PeriphResetCmd                            /home/jssmile/STM32F4_Examples/04_PWM_Servo/lib/STM32F4xx_StdPeriph_Driver/libstdperiph.a(stm32f4xx_rcc.o)
                                                  /home/jssmile/STM32F4_Examples/04_PWM_Servo/lib/STM32F4xx_StdPeriph_Driver/libstdperiph.a(stm32f4xx_tim.o)
RCC_AdjustHSICalibrationValue                     /home/jssmile/STM32F4_Examples/04_PWM_Servo/lib/STM32F4xx_StdPeriph_Driver/libstdperiph.a(stm32f4xx_rcc.o)
RCC_BackupResetCmd                                /home/jssmile/STM32F4_Examples/04_PWM_Servo/lib/STM32F4xx_StdPeriph_Driver/libstdperiph.a(stm32f4xx_rcc.o)
RCC_ClearFlag                                     /home/jssmile/STM32F4_Examples/04_PWM_Servo/lib/STM32F4xx_StdPeriph_Driver/libstdperiph.a(stm32f4xx_rcc.o)
RCC_ClearITPendingBit                             /home/jssmile/STM32F4_Examples/04_PWM_Servo/lib/STM32F4xx_StdPeriph_Driver/libstdperiph.a(stm32f4xx_rcc.o)
RCC_ClockSecuritySystemCmd                        /home/jssmile/STM32F4_Examples/04_PWM_Servo/lib/STM32F4xx_StdPeriph_Driver/libstdperiph.a(stm32f4xx_rcc.o)
RCC_DeInit                                        /home/jssmile/STM32F4_Examples/04_PWM_Servo/lib/STM32F4xx_StdPeriph_Driver/libstdperiph.a(stm32f4xx_rcc.o)
RCC_GetClocksFreq                                 /home/jssmile/STM32F4_Examples/04_PWM_Servo/lib/STM32F4xx_StdPeriph_Driver/libstdperiph.a(stm32f4xx_rcc.o)
RCC_GetFlagStatus                                 /home/jssmile/STM32F4_Examples/04_PWM_Servo/lib/STM32F4xx_StdPeriph_Driver/libstdperiph.a(stm32f4xx_rcc.o)
RCC_GetITStatus                                   /home/jssmile/STM32F4_Examples/04_PWM_Servo/lib/STM32F4xx_StdPeriph_Driver/libstdperiph.a(stm32f4xx_rcc.o)
RCC_GetSYSCLKSource                               /home/jssmile/STM32F4_Examples/04_PWM_Servo/lib/STM32F4xx_StdPeriph_Driver/libstdperiph.a(stm32f4xx_rcc.o)
RCC_HCLKConfig                                    /home/jssmile/STM32F4_Examples/04_PWM_Servo/lib/STM32F4xx_StdPeriph_Driver/libstdperiph.a(stm32f4xx_rcc.o)
RCC_HSEConfig                                     /home/jssmile/STM32F4_Examples/04_PWM_Servo/lib/STM32F4xx_StdPeriph_Driver/libstdperiph.a(stm32f4xx_rcc.o)
RCC_HSICmd                                        /home/jssmile/STM32F4_Examples/04_PWM_Servo/lib/STM32F4xx_StdPeriph_Driver/libstdperiph.a(stm32f4xx_rcc.o)
RCC_I2SCLKConfig                                  /home/jssmile/STM32F4_Examples/04_PWM_Servo/lib/STM32F4xx_StdPeriph_Driver/libstdperiph.a(stm32f4xx_rcc.o)
RCC_IRQHandler                                    /home/jssmile/STM32F4_Examples/04_PWM_Servo/build/startup_stm32f4xx.o
RCC_ITConfig                                      /home/jssmile/STM32F4_Examples/04_PWM_Servo/lib/STM32F4xx_StdPeriph_Driver/libstdperiph.a(stm32f4xx_rcc.o)
RCC_LSEConfig                                     /home/jssmile/STM32F4_Examples/04_PWM_Servo/lib/STM32F4xx_StdPeriph_Driver/libstdperiph.a(stm32f4xx_rcc.o)
RCC_LSICmd                                        /home/jssmile/STM32F4_Examples/04_PWM_Servo/lib/STM32F4xx_StdPeriph_Driver/libstdperiph.a(stm32f4xx_rcc.o)
RCC_LTDCCLKDivConfig                              /home/jssmile/STM32F4_Examples/04_PWM_Servo/lib/STM32F4xx_StdPeriph_Driver/libstdperiph.a(stm32f4xx_rcc.o)
RCC_MCO1Config                                    /home/jssmile/STM32F4_Examples/04_PWM_Servo/lib/STM32F4xx_StdPeriph_Driver/libstdperiph.a(stm32f4xx_rcc.o)
RCC_MCO2Config                                    /home/jssmile/STM32F4_Examples/04_PWM_Servo/lib/STM32F4xx_StdPeriph_Driver/libstdperiph.a(stm32f4xx_rcc.o)
RCC_PCLK1Config                                   /home/jssmile/STM32F4_Examples/04_PWM_Servo/lib/STM32F4xx_StdPeriph_Driver/libstdperiph.a(stm32f4xx_rcc.o)
RCC_PCLK2Config                                   /home/jssmile/STM32F4_Examples/04_PWM_Servo/lib/STM32F4xx_StdPeriph_Driver/libstdperiph.a(stm32f4xx_rcc.o)
RCC_PLLCmd                                        /home/jssmile/STM32F4_Examples/04_PWM_Servo/lib/STM32F4xx_StdPeriph_Driver/libstdperiph.a(stm32f4xx_rcc.o)
RCC_PLLConfig                                     /home/jssmile/STM32F4_Examples/04_PWM_Servo/lib/STM32F4xx_StdPeriph_Driver/libstdperiph.a(stm32f4xx_rcc.o)
RCC_PLLI2SCmd                                     /home/jssmile/STM32F4_Examples/04_PWM_Servo/lib/STM32F4xx_StdPeriph_Driver/libstdperiph.a(stm32f4xx_rcc.o)
RCC_PLLI2SConfig                                  /home/jssmile/STM32F4_Examples/04_PWM_Servo/lib/STM32F4xx_StdPeriph_Driver/libstdperiph.a(stm32f4xx_rcc.o)
RCC_PLLSAICmd                                     /home/jssmile/STM32F4_Examples/04_PWM_Servo/lib/STM32F4xx_StdPeriph_Driver/libstdperiph.a(stm32f4xx_rcc.o)
RCC_PLLSAIConfig                                  /home/jssmile/STM32F4_Examples/04_PWM_Servo/lib/STM32F4xx_StdPeriph_Driver/libstdperiph.a(stm32f4xx_rcc.o)
RCC_RTCCLKCmd                                     /home/jssmile/STM32F4_Examples/04_PWM_Servo/lib/STM32F4xx_StdPeriph_Driver/libstdperiph.a(stm32f4xx_rcc.o)
RCC_RTCCLKConfig                                  /home/jssmile/STM32F4_Examples/04_PWM_Servo/lib/STM32F4xx_StdPeriph_Driver/libstdperiph.a(stm32f4xx_rcc.o)
RCC_SAIBlockACLKConfig                            /home/jssmile/STM32F4_Examples/04_PWM_Servo/lib/STM32F4xx_StdPeriph_Driver/libstdperiph.a(stm32f4xx_rcc.o)
RCC_SAIBlockBCLKConfig                            /home/jssmile/STM32F4_Examples/04_PWM_Servo/lib/STM32F4xx_StdPeriph_Driver/libstdperiph.a(stm32f4xx_rcc.o)
RCC_SAIPLLI2SClkDivConfig                         /home/jssmile/STM32F4_Examples/04_PWM_Servo/lib/STM32F4xx_StdPeriph_Driver/libstdperiph.a(stm32f4xx_rcc.o)
RCC_SAIPLLSAIClkDivConfig                         /home/jssmile/STM32F4_Examples/04_PWM_Servo/lib/STM32F4xx_StdPeriph_Driver/libstdperiph.a(stm32f4xx_rcc.o)
RCC_SYSCLKConfig                                  /home/jssmile/STM32F4_Examples/04_PWM_Servo/lib/STM32F4xx_StdPeriph_Driver/libstdperiph.a(stm32f4xx_rcc.o)
RCC_TIMCLKPresConfig                              /home/jssmile/STM32F4_Examples/04_PWM_Servo/lib/STM32F4xx_StdPeriph_Driver/libstdperiph.a(stm32f4xx_rcc.o)
RCC_WaitForHSEStartUp                             /home/jssmile/STM32F4_Examples/04_PWM_Servo/lib/STM32F4xx_StdPeriph_Driver/libstdperiph.a(stm32f4xx_rcc.o)
RTC_Alarm_IRQHandler                              /home/jssmile/STM32F4_Examples/04_PWM_Servo/build/startup_stm32f4xx.o
RTC_WKUP_IRQHandler                               /home/jssmile/STM32F4_Examples/04_PWM_Servo/build/startup_stm32f4xx.o
Reset_Handler                                     /home/jssmile/STM32F4_Examples/04_PWM_Servo/build/startup_stm32f4xx.o
SDIO_IRQHandler                                   /home/jssmile/STM32F4_Examples/04_PWM_Servo/build/startup_stm32f4xx.o
SPI1_IRQHandler                                   /home/jssmile/STM32F4_Examples/04_PWM_Servo/build/startup_stm32f4xx.o
SPI2_IRQHandler                                   /home/jssmile/STM32F4_Examples/04_PWM_Servo/build/startup_stm32f4xx.o
SPI3_IRQHandler                                   /home/jssmile/STM32F4_Examples/04_PWM_Servo/build/startup_stm32f4xx.o
SVC_Handler                                       /home/jssmile/STM32F4_Examples/04_PWM_Servo/build/startup_stm32f4xx.o
SysTick_Handler                                   /home/jssmile/STM32F4_Examples/04_PWM_Servo/build/main.o
                                                  /home/jssmile/STM32F4_Examples/04_PWM_Servo/build/startup_stm32f4xx.o
SystemCoreClock                                   /home/jssmile/STM32F4_Examples/04_PWM_Servo/build/system_stm32f4xx.o
                                                  /home/jssmile/STM32F4_Examples/04_PWM_Servo/build/main.o
SystemCoreClockUpdate                             /home/jssmile/STM32F4_Examples/04_PWM_Servo/build/system_stm32f4xx.o
SystemInit                                        /home/jssmile/STM32F4_Examples/04_PWM_Servo/build/system_stm32f4xx.o
                                                  /home/jssmile/STM32F4_Examples/04_PWM_Servo/build/startup_stm32f4xx.o
TAMP_STAMP_IRQHandler                             /home/jssmile/STM32F4_Examples/04_PWM_Servo/build/startup_stm32f4xx.o
TIM1_BRK_TIM9_IRQHandler                          /home/jssmile/STM32F4_Examples/04_PWM_Servo/build/startup_stm32f4xx.o
TIM1_CC_IRQHandler                                /home/jssmile/STM32F4_Examples/04_PWM_Servo/build/startup_stm32f4xx.o
TIM1_TRG_COM_TIM11_IRQHandler                     /home/jssmile/STM32F4_Examples/04_PWM_Servo/build/startup_stm32f4xx.o
TIM1_UP_TIM10_IRQHandler                          /home/jssmile/STM32F4_Examples/04_PWM_Servo/build/startup_stm32f4xx.o
TIM2_IRQHandler                                   /home/jssmile/STM32F4_Examples/04_PWM_Servo/build/startup_stm32f4xx.o
TIM3_IRQHandler                                   /home/jssmile/STM32F4_Examples/04_PWM_Servo/build/startup_stm32f4xx.o
TIM4_IRQHandler                                   /home/jssmile/STM32F4_Examples/04_PWM_Servo/build/startup_stm32f4xx.o
TIM5_IRQHandler                                   /home/jssmile/STM32F4_Examples/04_PWM_Servo/build/startup_stm32f4xx.o
TIM6_DAC_IRQHandler                               /home/jssmile/STM32F4_Examples/04_PWM_Servo/build/startup_stm32f4xx.o
TIM7_IRQHandler                                   /home/jssmile/STM32F4_Examples/04_PWM_Servo/build/startup_stm32f4xx.o
TIM8_BRK_TIM12_IRQHandler                         /home/jssmile/STM32F4_Examples/04_PWM_Servo/build/startup_stm32f4xx.o
TIM8_CC_IRQHandler                                /home/jssmile/STM32F4_Examples/04_PWM_Servo/build/startup_stm32f4xx.o
TIM8_TRG_COM_TIM14_IRQHandler                     /home/jssmile/STM32F4_Examples/04_PWM_Servo/build/startup_stm32f4xx.o
TIM8_UP_TIM13_IRQHandler                          /home/jssmile/STM32F4_Examples/04_PWM_Servo/build/startup_stm32f4xx.o
TIM_ARRPreloadConfig                              /home/jssmile/STM32F4_Examples/04_PWM_Servo/lib/STM32F4xx_StdPeriph_Driver/libstdperiph.a(stm32f4xx_tim.o)
                                                  /home/jssmile/STM32F4_Examples/04_PWM_Servo/build/main.o
TIM_BDTRConfig                                    /home/jssmile/STM32F4_Examples/04_PWM_Servo/lib/STM32F4xx_StdPeriph_Driver/libstdperiph.a(stm32f4xx_tim.o)
TIM_BDTRStructInit                                /home/jssmile/STM32F4_Examples/04_PWM_Servo/lib/STM32F4xx_StdPeriph_Driver/libstdperiph.a(stm32f4xx_tim.o)
TIM_CCPreloadControl                              /home/jssmile/STM32F4_Examples/04_PWM_Servo/lib/STM32F4xx_StdPeriph_Driver/libstdperiph.a(stm32f4xx_tim.o)
TIM_CCxCmd                                        /home/jssmile/STM32F4_Examples/04_PWM_Servo/lib/STM32F4xx_StdPeriph_Driver/libstdperiph.a(stm32f4xx_tim.o)
TIM_CCxNCmd                                       /home/jssmile/STM32F4_Examples/04_PWM_Servo/lib/STM32F4xx_StdPeriph_Driver/libstdperiph.a(stm32f4xx_tim.o)
TIM_ClearFlag                                     /home/jssmile/STM32F4_Examples/04_PWM_Servo/lib/STM32F4xx_StdPeriph_Driver/libstdperiph.a(stm32f4xx_tim.o)
TIM_ClearITPendingBit                             /home/jssmile/STM32F4_Examples/04_PWM_Servo/lib/STM32F4xx_StdPeriph_Driver/libstdperiph.a(stm32f4xx_tim.o)
TIM_ClearOC1Ref                                   /home/jssmile/STM32F4_Examples/04_PWM_Servo/lib/STM32F4xx_StdPeriph_Driver/libstdperiph.a(stm32f4xx_tim.o)
TIM_ClearOC2Ref                                   /home/jssmile/STM32F4_Examples/04_PWM_Servo/lib/STM32F4xx_StdPeriph_Driver/libstdperiph.a(stm32f4xx_tim.o)
TIM_ClearOC3Ref                                   /home/jssmile/STM32F4_Examples/04_PWM_Servo/lib/STM32F4xx_StdPeriph_Driver/libstdperiph.a(stm32f4xx_tim.o)
TIM_ClearOC4Ref                                   /home/jssmile/STM32F4_Examples/04_PWM_Servo/lib/STM32F4xx_StdPeriph_Driver/libstdperiph.a(stm32f4xx_tim.o)
TIM_Cmd                                           /home/jssmile/STM32F4_Examples/04_PWM_Servo/lib/STM32F4xx_StdPeriph_Driver/libstdperiph.a(stm32f4xx_tim.o)
                                                  /home/jssmile/STM32F4_Examples/04_PWM_Servo/build/main.o
TIM_CounterModeConfig                             /home/jssmile/STM32F4_Examples/04_PWM_Servo/lib/STM32F4xx_StdPeriph_Driver/libstdperiph.a(stm32f4xx_tim.o)
TIM_CtrlPWMOutputs                                /home/jssmile/STM32F4_Examples/04_PWM_Servo/lib/STM32F4xx_StdPeriph_Driver/libstdperiph.a(stm32f4xx_tim.o)
TIM_DMACmd                                        /home/jssmile/STM32F4_Examples/04_PWM_Servo/lib/STM32F4xx_StdPeriph_Driver/libstdperiph.a(stm32f4xx_tim.o)
TIM_DMAConfig                                     /home/jssmile/STM32F4_Examples/04_PWM_Servo/lib/STM32F4xx_StdPeriph_Driver/libstdperiph.a(stm32f4xx_tim.o)
TIM_DeInit                                        /home/jssmile/STM32F4_Examples/04_PWM_Servo/lib/STM32F4xx_StdPeriph_Driver/libstdperiph.a(stm32f4xx_tim.o)
TIM_ETRClockMode1Config                           /home/jssmile/STM32F4_Examples/04_PWM_Servo/lib/STM32F4xx_StdPeriph_Driver/libstdperiph.a(stm32f4xx_tim.o)
TIM_ETRClockMode2Config                           /home/jssmile/STM32F4_Examples/04_PWM_Servo/lib/STM32F4xx_StdPeriph_Driver/libstdperiph.a(stm32f4xx_tim.o)
TIM_ETRConfig                                     /home/jssmile/STM32F4_Examples/04_PWM_Servo/lib/STM32F4xx_StdPeriph_Driver/libstdperiph.a(stm32f4xx_tim.o)
TIM_EncoderInterfaceConfig                        /home/jssmile/STM32F4_Examples/04_PWM_Servo/lib/STM32F4xx_StdPeriph_Driver/libstdperiph.a(stm32f4xx_tim.o)
TIM_ForcedOC1Config                               /home/jssmile/STM32F4_Examples/04_PWM_Servo/lib/STM32F4xx_StdPeriph_Driver/libstdperiph.a(stm32f4xx_tim.o)
TIM_ForcedOC2Config                               /home/jssmile/STM32F4_Examples/04_PWM_Servo/lib/STM32F4xx_StdPeriph_Driver/libstdperiph.a(stm32f4xx_tim.o)
TIM_ForcedOC3Config                               /home/jssmile/STM32F4_Examples/04_PWM_Servo/lib/STM32F4xx_StdPeriph_Driver/libstdperiph.a(stm32f4xx_tim.o)
TIM_ForcedOC4Config                               /home/jssmile/STM32F4_Examples/04_PWM_Servo/lib/STM32F4xx_StdPeriph_Driver/libstdperiph.a(stm32f4xx_tim.o)
TIM_GenerateEvent                                 /home/jssmile/STM32F4_Examples/04_PWM_Servo/lib/STM32F4xx_StdPeriph_Driver/libstdperiph.a(stm32f4xx_tim.o)
TIM_GetCapture1                                   /home/jssmile/STM32F4_Examples/04_PWM_Servo/lib/STM32F4xx_StdPeriph_Driver/libstdperiph.a(stm32f4xx_tim.o)
TIM_GetCapture2                                   /home/jssmile/STM32F4_Examples/04_PWM_Servo/lib/STM32F4xx_StdPeriph_Driver/libstdperiph.a(stm32f4xx_tim.o)
TIM_GetCapture3                                   /home/jssmile/STM32F4_Examples/04_PWM_Servo/lib/STM32F4xx_StdPeriph_Driver/libstdperiph.a(stm32f4xx_tim.o)
TIM_GetCapture4                                   /home/jssmile/STM32F4_Examples/04_PWM_Servo/lib/STM32F4xx_StdPeriph_Driver/libstdperiph.a(stm32f4xx_tim.o)
TIM_GetCounter                                    /home/jssmile/STM32F4_Examples/04_PWM_Servo/lib/STM32F4xx_StdPeriph_Driver/libstdperiph.a(stm32f4xx_tim.o)
TIM_GetFlagStatus                                 /home/jssmile/STM32F4_Examples/04_PWM_Servo/lib/STM32F4xx_StdPeriph_Driver/libstdperiph.a(stm32f4xx_tim.o)
TIM_GetITStatus                                   /home/jssmile/STM32F4_Examples/04_PWM_Servo/lib/STM32F4xx_StdPeriph_Driver/libstdperiph.a(stm32f4xx_tim.o)
TIM_GetPrescaler                                  /home/jssmile/STM32F4_Examples/04_PWM_Servo/lib/STM32F4xx_StdPeriph_Driver/libstdperiph.a(stm32f4xx_tim.o)
TIM_ICInit                                        /home/jssmile/STM32F4_Examples/04_PWM_Servo/lib/STM32F4xx_StdPeriph_Driver/libstdperiph.a(stm32f4xx_tim.o)
TIM_ICStructInit                                  /home/jssmile/STM32F4_Examples/04_PWM_Servo/lib/STM32F4xx_StdPeriph_Driver/libstdperiph.a(stm32f4xx_tim.o)
TIM_ITConfig                                      /home/jssmile/STM32F4_Examples/04_PWM_Servo/lib/STM32F4xx_StdPeriph_Driver/libstdperiph.a(stm32f4xx_tim.o)
TIM_ITRxExternalClockConfig                       /home/jssmile/STM32F4_Examples/04_PWM_Servo/lib/STM32F4xx_StdPeriph_Driver/libstdperiph.a(stm32f4xx_tim.o)
TIM_InternalClockConfig                           /home/jssmile/STM32F4_Examples/04_PWM_Servo/lib/STM32F4xx_StdPeriph_Driver/libstdperiph.a(stm32f4xx_tim.o)
TIM_OC1FastConfig                                 /home/jssmile/STM32F4_Examples/04_PWM_Servo/lib/STM32F4xx_StdPeriph_Driver/libstdperiph.a(stm32f4xx_tim.o)
TIM_OC1Init                                       /home/jssmile/STM32F4_Examples/04_PWM_Servo/lib/STM32F4xx_StdPeriph_Driver/libstdperiph.a(stm32f4xx_tim.o)
                                                  /home/jssmile/STM32F4_Examples/04_PWM_Servo/build/main.o
TIM_OC1NPolarityConfig                            /home/jssmile/STM32F4_Examples/04_PWM_Servo/lib/STM32F4xx_StdPeriph_Driver/libstdperiph.a(stm32f4xx_tim.o)
TIM_OC1PolarityConfig                             /home/jssmile/STM32F4_Examples/04_PWM_Servo/lib/STM32F4xx_StdPeriph_Driver/libstdperiph.a(stm32f4xx_tim.o)
TIM_OC1PreloadConfig                              /home/jssmile/STM32F4_Examples/04_PWM_Servo/lib/STM32F4xx_StdPeriph_Driver/libstdperiph.a(stm32f4xx_tim.o)
                                                  /home/jssmile/STM32F4_Examples/04_PWM_Servo/build/main.o
TIM_OC2FastConfig                                 /home/jssmile/STM32F4_Examples/04_PWM_Servo/lib/STM32F4xx_StdPeriph_Driver/libstdperiph.a(stm32f4xx_tim.o)
TIM_OC2Init                                       /home/jssmile/STM32F4_Examples/04_PWM_Servo/lib/STM32F4xx_StdPeriph_Driver/libstdperiph.a(stm32f4xx_tim.o)
                                                  /home/jssmile/STM32F4_Examples/04_PWM_Servo/build/main.o
TIM_OC2NPolarityConfig                            /home/jssmile/STM32F4_Examples/04_PWM_Servo/lib/STM32F4xx_StdPeriph_Driver/libstdperiph.a(stm32f4xx_tim.o)
TIM_OC2PolarityConfig                             /home/jssmile/STM32F4_Examples/04_PWM_Servo/lib/STM32F4xx_StdPeriph_Driver/libstdperiph.a(stm32f4xx_tim.o)
TIM_OC2PreloadConfig                              /home/jssmile/STM32F4_Examples/04_PWM_Servo/lib/STM32F4xx_StdPeriph_Driver/libstdperiph.a(stm32f4xx_tim.o)
                                                  /home/jssmile/STM32F4_Examples/04_PWM_Servo/build/main.o
TIM_OC3FastConfig                                 /home/jssmile/STM32F4_Examples/04_PWM_Servo/lib/STM32F4xx_StdPeriph_Driver/libstdperiph.a(stm32f4xx_tim.o)
TIM_OC3Init                                       /home/jssmile/STM32F4_Examples/04_PWM_Servo/lib/STM32F4xx_StdPeriph_Driver/libstdperiph.a(stm32f4xx_tim.o)
TIM_OC3NPolarityConfig                            /home/jssmile/STM32F4_Examples/04_PWM_Servo/lib/STM32F4xx_StdPeriph_Driver/libstdperiph.a(stm32f4xx_tim.o)
TIM_OC3PolarityConfig                             /home/jssmile/STM32F4_Examples/04_PWM_Servo/lib/STM32F4xx_StdPeriph_Driver/libstdperiph.a(stm32f4xx_tim.o)
TIM_OC3PreloadConfig                              /home/jssmile/STM32F4_Examples/04_PWM_Servo/lib/STM32F4xx_StdPeriph_Driver/libstdperiph.a(stm32f4xx_tim.o)
TIM_OC4FastConfig                                 /home/jssmile/STM32F4_Examples/04_PWM_Servo/lib/STM32F4xx_StdPeriph_Driver/libstdperiph.a(stm32f4xx_tim.o)
TIM_OC4Init                                       /home/jssmile/STM32F4_Examples/04_PWM_Servo/lib/STM32F4xx_StdPeriph_Driver/libstdperiph.a(stm32f4xx_tim.o)
TIM_OC4PolarityConfig                             /home/jssmile/STM32F4_Examples/04_PWM_Servo/lib/STM32F4xx_StdPeriph_Driver/libstdperiph.a(stm32f4xx_tim.o)
TIM_OC4PreloadConfig                              /home/jssmile/STM32F4_Examples/04_PWM_Servo/lib/STM32F4xx_StdPeriph_Driver/libstdperiph.a(stm32f4xx_tim.o)
TIM_OCStructInit                                  /home/jssmile/STM32F4_Examples/04_PWM_Servo/lib/STM32F4xx_StdPeriph_Driver/libstdperiph.a(stm32f4xx_tim.o)
TIM_PWMIConfig                                    /home/jssmile/STM32F4_Examples/04_PWM_Servo/lib/STM32F4xx_StdPeriph_Driver/libstdperiph.a(stm32f4xx_tim.o)
TIM_PrescalerConfig                               /home/jssmile/STM32F4_Examples/04_PWM_Servo/lib/STM32F4xx_StdPeriph_Driver/libstdperiph.a(stm32f4xx_tim.o)
TIM_RemapConfig                                   /home/jssmile/STM32F4_Examples/04_PWM_Servo/lib/STM32F4xx_StdPeriph_Driver/libstdperiph.a(stm32f4xx_tim.o)
TIM_SelectCCDMA                                   /home/jssmile/STM32F4_Examples/04_PWM_Servo/lib/STM32F4xx_StdPeriph_Driver/libstdperiph.a(stm32f4xx_tim.o)
TIM_SelectCOM                                     /home/jssmile/STM32F4_Examples/04_PWM_Servo/lib/STM32F4xx_StdPeriph_Driver/libstdperiph.a(stm32f4xx_tim.o)
TIM_SelectHallSensor                              /home/jssmile/STM32F4_Examples/04_PWM_Servo/lib/STM32F4xx_StdPeriph_Driver/libstdperiph.a(stm32f4xx_tim.o)
TIM_SelectInputTrigger                            /home/jssmile/STM32F4_Examples/04_PWM_Servo/lib/STM32F4xx_StdPeriph_Driver/libstdperiph.a(stm32f4xx_tim.o)
TIM_SelectMasterSlaveMode                         /home/jssmile/STM32F4_Examples/04_PWM_Servo/lib/STM32F4xx_StdPeriph_Driver/libstdperiph.a(stm32f4xx_tim.o)
TIM_SelectOCxM                                    /home/jssmile/STM32F4_Examples/04_PWM_Servo/lib/STM32F4xx_StdPeriph_Driver/libstdperiph.a(stm32f4xx_tim.o)
TIM_SelectOnePulseMode                            /home/jssmile/STM32F4_Examples/04_PWM_Servo/lib/STM32F4xx_StdPeriph_Driver/libstdperiph.a(stm32f4xx_tim.o)
TIM_SelectOutputTrigger                           /home/jssmile/STM32F4_Examples/04_PWM_Servo/lib/STM32F4xx_StdPeriph_Driver/libstdperiph.a(stm32f4xx_tim.o)
TIM_SelectSlaveMode                               /home/jssmile/STM32F4_Examples/04_PWM_Servo/lib/STM32F4xx_StdPeriph_Driver/libstdperiph.a(stm32f4xx_tim.o)
TIM_SetAutoreload                                 /home/jssmile/STM32F4_Examples/04_PWM_Servo/lib/STM32F4xx_StdPeriph_Driver/libstdperiph.a(stm32f4xx_tim.o)
TIM_SetClockDivision                              /home/jssmile/STM32F4_Examples/04_PWM_Servo/lib/STM32F4xx_StdPeriph_Driver/libstdperiph.a(stm32f4xx_tim.o)
TIM_SetCompare1                                   /home/jssmile/STM32F4_Examples/04_PWM_Servo/lib/STM32F4xx_StdPeriph_Driver/libstdperiph.a(stm32f4xx_tim.o)
TIM_SetCompare2                                   /home/jssmile/STM32F4_Examples/04_PWM_Servo/lib/STM32F4xx_StdPeriph_Driver/libstdperiph.a(stm32f4xx_tim.o)
TIM_SetCompare3                                   /home/jssmile/STM32F4_Examples/04_PWM_Servo/lib/STM32F4xx_StdPeriph_Driver/libstdperiph.a(stm32f4xx_tim.o)
TIM_SetCompare4                                   /home/jssmile/STM32F4_Examples/04_PWM_Servo/lib/STM32F4xx_StdPeriph_Driver/libstdperiph.a(stm32f4xx_tim.o)
TIM_SetCounter                                    /home/jssmile/STM32F4_Examples/04_PWM_Servo/lib/STM32F4xx_StdPeriph_Driver/libstdperiph.a(stm32f4xx_tim.o)
TIM_SetIC1Prescaler                               /home/jssmile/STM32F4_Examples/04_PWM_Servo/lib/STM32F4xx_StdPeriph_Driver/libstdperiph.a(stm32f4xx_tim.o)
TIM_SetIC2Prescaler                               /home/jssmile/STM32F4_Examples/04_PWM_Servo/lib/STM32F4xx_StdPeriph_Driver/libstdperiph.a(stm32f4xx_tim.o)
TIM_SetIC3Prescaler                               /home/jssmile/STM32F4_Examples/04_PWM_Servo/lib/STM32F4xx_StdPeriph_Driver/libstdperiph.a(stm32f4xx_tim.o)
TIM_SetIC4Prescaler                               /home/jssmile/STM32F4_Examples/04_PWM_Servo/lib/STM32F4xx_StdPeriph_Driver/libstdperiph.a(stm32f4xx_tim.o)
TIM_TIxExternalClockConfig                        /home/jssmile/STM32F4_Examples/04_PWM_Servo/lib/STM32F4xx_StdPeriph_Driver/libstdperiph.a(stm32f4xx_tim.o)
TIM_TimeBaseInit                                  /home/jssmile/STM32F4_Examples/04_PWM_Servo/lib/STM32F4xx_StdPeriph_Driver/libstdperiph.a(stm32f4xx_tim.o)
                                                  /home/jssmile/STM32F4_Examples/04_PWM_Servo/build/main.o
TIM_TimeBaseStructInit                            /home/jssmile/STM32F4_Examples/04_PWM_Servo/lib/STM32F4xx_StdPeriph_Driver/libstdperiph.a(stm32f4xx_tim.o)
TIM_UpdateDisableConfig                           /home/jssmile/STM32F4_Examples/04_PWM_Servo/lib/STM32F4xx_StdPeriph_Driver/libstdperiph.a(stm32f4xx_tim.o)
TIM_UpdateRequestConfig                           /home/jssmile/STM32F4_Examples/04_PWM_Servo/lib/STM32F4xx_StdPeriph_Driver/libstdperiph.a(stm32f4xx_tim.o)
UART4_IRQHandler                                  /home/jssmile/STM32F4_Examples/04_PWM_Servo/build/startup_stm32f4xx.o
UART5_IRQHandler                                  /home/jssmile/STM32F4_Examples/04_PWM_Servo/build/startup_stm32f4xx.o
USART1_IRQHandler                                 /home/jssmile/STM32F4_Examples/04_PWM_Servo/build/startup_stm32f4xx.o
USART2_IRQHandler                                 /home/jssmile/STM32F4_Examples/04_PWM_Servo/build/startup_stm32f4xx.o
USART3_IRQHandler                                 /home/jssmile/STM32F4_Examples/04_PWM_Servo/build/startup_stm32f4xx.o
USART6_IRQHandler                                 /home/jssmile/STM32F4_Examples/04_PWM_Servo/build/startup_stm32f4xx.o
UsageFault_Handler                                /home/jssmile/STM32F4_Examples/04_PWM_Servo/build/startup_stm32f4xx.o
WWDG_IRQHandler                                   /home/jssmile/STM32F4_Examples/04_PWM_Servo/build/startup_stm32f4xx.o
__bss_end__                                       /home/jssmile/STM32F4_Examples/04_PWM_Servo/build/startup_stm32f4xx.o
__bss_start__                                     /home/jssmile/STM32F4_Examples/04_PWM_Servo/build/startup_stm32f4xx.o
__data_end__                                      /home/jssmile/STM32F4_Examples/04_PWM_Servo/build/startup_stm32f4xx.o
__data_start__                                    /home/jssmile/STM32F4_Examples/04_PWM_Servo/build/startup_stm32f4xx.o
__sidata                                          /home/jssmile/STM32F4_Examples/04_PWM_Servo/build/startup_stm32f4xx.o
_estack                                           /home/jssmile/STM32F4_Examples/04_PWM_Servo/build/startup_stm32f4xx.o
clockwise_A                                       /home/jssmile/STM32F4_Examples/04_PWM_Servo/build/main.o
clockwise_B                                       /home/jssmile/STM32F4_Examples/04_PWM_Servo/build/main.o
config_PWM                                        /home/jssmile/STM32F4_Examples/04_PWM_Servo/build/main.o
counterClockwise_A                                /home/jssmile/STM32F4_Examples/04_PWM_Servo/build/main.o
counterClockwise_B                                /home/jssmile/STM32F4_Examples/04_PWM_Servo/build/main.o
g_pfnVectors                                      /home/jssmile/STM32F4_Examples/04_PWM_Servo/build/startup_stm32f4xx.o
gpio_init_motor                                   /home/jssmile/STM32F4_Examples/04_PWM_Servo/build/main.o
main                                              /home/jssmile/STM32F4_Examples/04_PWM_Servo/build/main.o
                                                  /home/jssmile/STM32F4_Examples/04_PWM_Servo/build/startup_stm32f4xx.o
msTicks                                           /home/jssmile/STM32F4_Examples/04_PWM_Servo/build/main.o
pad_init                                          /home/jssmile/STM32F4_Examples/04_PWM_Servo/build/main.o
pen_down                                          /home/jssmile/STM32F4_Examples/04_PWM_Servo/build/main.o
pen_up                                            /home/jssmile/STM32F4_Examples/04_PWM_Servo/build/main.o
setSysTick                                        /home/jssmile/STM32F4_Examples/04_PWM_Servo/build/main.o
turnOffLED                                        /home/jssmile/STM32F4_Examples/04_PWM_Servo/build/CortexM4asmOps.o
turnOnLED                                         /home/jssmile/STM32F4_Examples/04_PWM_Servo/build/CortexM4asmOps.o
